; Function Attrs: mustprogress uwtable
define noundef i32 @_ZN13TextureObject7MaxSizeEv(ptr nocapture noundef nonnull readonly align 8 dereferenceable(48) %0) local_unnamed_addr #5 align 2 {
  %2 = getelementptr inbounds i8, ptr %0, i64 8
  %3 = load ptr, ptr %2, align 8
  %4 = load ptr, ptr %0, align 8
  %.not = icmp eq ptr %3, %4
  br i1 %.not, label %._crit_edge, label %_ZN13TextureObject12TextureWidthEm.exit

_ZN13TextureObject12TextureWidthEm.exit:          ; preds = %1, %_ZN13TextureObject13TextureHeightEm.exit
  %5 = phi ptr [ %22, %_ZN13TextureObject13TextureHeightEm.exit ], [ %4, %1 ]
  %6 = phi i64 [ %20, %_ZN13TextureObject13TextureHeightEm.exit ], [ 0, %1 ]
  %.019 = phi i32 [ %19, %_ZN13TextureObject13TextureHeightEm.exit ], [ 0, %1 ]
  %.01618 = phi i32 [ %.sroa.speculated, %_ZN13TextureObject13TextureHeightEm.exit ], [ 0, %1 ]
  %7 = getelementptr inbounds %struct.TextureImageInfo, ptr %5, i64 %6
  %8 = tail call noundef i32 @_ZNK6QImage5widthEv(ptr noundef nonnull align 8 dereferenceable(32) %7)
  %9 = load ptr, ptr %2, align 8
  %10 = load ptr, ptr %0, align 8
  %11 = ptrtoint ptr %9 to i64
  %12 = ptrtoint ptr %10 to i64
  %13 = sub i64 %11, %12
  %14 = ashr exact i64 %13, 5
  %15 = icmp ugt i64 %14, %6
  br i1 %15, label %_ZN13TextureObject13TextureHeightEm.exit, label %16

16:                                               ; preds = %_ZN13TextureObject12TextureWidthEm.exit
  tail call void @_Z11ensure_failPKcS0_j(ptr noundef nonnull @.str.7, ptr noundef nonnull @.str.2, i32 noundef 114) #20
  unreachable

_ZN13TextureObject13TextureHeightEm.exit:         ; preds = %_ZN13TextureObject12TextureWidthEm.exit
  %.sroa.speculated8 = tail call i32 @llvm.smax.i32(i32 %.01618, i32 %8)
  %17 = getelementptr inbounds %struct.TextureImageInfo, ptr %10, i64 %6
  %18 = tail call noundef i32 @_ZNK6QImage6heightEv(ptr noundef nonnull align 8 dereferenceable(32) %17)
  %.sroa.speculated = tail call i32 @llvm.smax.i32(i32 %.sroa.speculated8, i32 %18)
  %19 = add i32 %.019, 1
  %20 = zext i32 %19 to i64
  %21 = load ptr, ptr %2, align 8
  %22 = load ptr, ptr %0, align 8
  %23 = ptrtoint ptr %21 to i64
  %24 = ptrtoint ptr %22 to i64
  %25 = sub i64 %23, %24
  %26 = ashr exact i64 %25, 5
  %27 = icmp ugt i64 %26, %20
  br i1 %27, label %_ZN13TextureObject12TextureWidthEm.exit, label %._crit_edge, !llvm.loop !22

._crit_edge:                                      ; preds = %_ZN13TextureObject13TextureHeightEm.exit, %1
  %.016.lcssa = phi i32 [ 0, %1 ], [ %.sroa.speculated, %_ZN13TextureObject13TextureHeightEm.exit ]
  ret i32 %.016.lcssa
}